target datalayout = "e-m:e-p270:32:32-p271:32:32-p272:64:64-i64:64-i128:128-f80:128-n8:16:32:64-S128"
target triple = "x86_64-pc-linux-gnu"

%struct.pointf_s = type { double, double }
%struct.Agobj_s = type { %struct.Agtag_s, ptr }
%struct.Agtag_s = type { i32, i64 }
%struct.Agrec_s = type { ptr, ptr }
%struct.boxf = type { %struct.pointf_s, %struct.pointf_s }
%struct.Agraphinfo_t = type { %struct.Agrec_s, ptr, ptr, %struct.boxf, [4 x %struct.pointf_s], i8, i8, i8, i8, i32, double, double, i16, ptr, ptr, ptr, ptr, i32, ptr, ptr, ptr, ptr, i16, i16, i32, ptr, ptr, ptr, ptr, ptr, i32, ptr, ptr, %struct.nlist_t, ptr, ptr, i32, i32, i8, i8, i32, i32, i32, ptr, ptr, ptr, ptr, i8, i8, i8, i8, i8 }
%struct.nlist_t = type { ptr, i64 }
%struct.textlabel_t = type { ptr, ptr, ptr, i32, double, %struct.pointf_s, %struct.pointf_s, %struct.pointf_s, %union.anon.0, i8, i8, i8 }
%union.anon.0 = type { %struct.anon }
%struct.anon = type { ptr, i64 }

; Function Attrs: nounwind uwtable
define internal void @scaleBB(ptr noundef %0, double noundef %1, double noundef %2) #0 {
  %4 = alloca ptr, align 8
  %5 = alloca double, align 8
  %6 = alloca double, align 8
  %7 = alloca i32, align 4
  store ptr %0, ptr %4, align 8, !tbaa !123
  store double %1, ptr %5, align 8, !tbaa !12
  store double %2, ptr %6, align 8, !tbaa !12
  call void @llvm.lifetime.start.p0(i64 4, ptr %7) #11
  %8 = load double, ptr %5, align 8, !tbaa !12
  %9 = load ptr, ptr %4, align 8, !tbaa !123
  %10 = getelementptr inbounds nuw %struct.Agobj_s, ptr %9, i32 0, i32 1
  %11 = load ptr, ptr %10, align 8, !tbaa !21
  %12 = getelementptr inbounds nuw %struct.Agraphinfo_t, ptr %11, i32 0, i32 3
  %13 = getelementptr inbounds nuw %struct.boxf, ptr %12, i32 0, i32 1
  %14 = getelementptr inbounds nuw %struct.pointf_s, ptr %13, i32 0, i32 0
  %15 = load double, ptr %14, align 8, !tbaa !171
  %16 = fmul double %15, %8
  store double %16, ptr %14, align 8, !tbaa !171
  %17 = load double, ptr %6, align 8, !tbaa !12
  %18 = load ptr, ptr %4, align 8, !tbaa !123
  %19 = getelementptr inbounds nuw %struct.Agobj_s, ptr %18, i32 0, i32 1
  %20 = load ptr, ptr %19, align 8, !tbaa !21
  %21 = getelementptr inbounds nuw %struct.Agraphinfo_t, ptr %20, i32 0, i32 3
  %22 = getelementptr inbounds nuw %struct.boxf, ptr %21, i32 0, i32 1
  %23 = getelementptr inbounds nuw %struct.pointf_s, ptr %22, i32 0, i32 1
  %24 = load double, ptr %23, align 8, !tbaa !172
  %25 = fmul double %24, %17
  store double %25, ptr %23, align 8, !tbaa !172
  %26 = load double, ptr %5, align 8, !tbaa !12
  %27 = load ptr, ptr %4, align 8, !tbaa !123
  %28 = getelementptr inbounds nuw %struct.Agobj_s, ptr %27, i32 0, i32 1
  %29 = load ptr, ptr %28, align 8, !tbaa !21
  %30 = getelementptr inbounds nuw %struct.Agraphinfo_t, ptr %29, i32 0, i32 3
  %31 = getelementptr inbounds nuw %struct.boxf, ptr %30, i32 0, i32 0
  %32 = getelementptr inbounds nuw %struct.pointf_s, ptr %31, i32 0, i32 0
  %33 = load double, ptr %32, align 8, !tbaa !165
  %34 = fmul double %33, %26
  store double %34, ptr %32, align 8, !tbaa !165
  %35 = load double, ptr %6, align 8, !tbaa !12
  %36 = load ptr, ptr %4, align 8, !tbaa !123
  %37 = getelementptr inbounds nuw %struct.Agobj_s, ptr %36, i32 0, i32 1
  %38 = load ptr, ptr %37, align 8, !tbaa !21
  %39 = getelementptr inbounds nuw %struct.Agraphinfo_t, ptr %38, i32 0, i32 3
  %40 = getelementptr inbounds nuw %struct.boxf, ptr %39, i32 0, i32 0
  %41 = getelementptr inbounds nuw %struct.pointf_s, ptr %40, i32 0, i32 1
  %42 = load double, ptr %41, align 8, !tbaa !166
  %43 = fmul double %42, %35
  store double %43, ptr %41, align 8, !tbaa !166
  %44 = load ptr, ptr %4, align 8, !tbaa !123
  %45 = getelementptr inbounds nuw %struct.Agobj_s, ptr %44, i32 0, i32 1
  %46 = load ptr, ptr %45, align 8, !tbaa !21
  %47 = getelementptr inbounds nuw %struct.Agraphinfo_t, ptr %46, i32 0, i32 2
  %48 = load ptr, ptr %47, align 8, !tbaa !200
  %49 = icmp ne ptr %48, null
  br i1 %49, label %50, label %80

50:                                               ; preds = %3
  %51 = load ptr, ptr %4, align 8, !tbaa !123
  %52 = getelementptr inbounds nuw %struct.Agobj_s, ptr %51, i32 0, i32 1
  %53 = load ptr, ptr %52, align 8, !tbaa !21
  %54 = getelementptr inbounds nuw %struct.Agraphinfo_t, ptr %53, i32 0, i32 2
  %55 = load ptr, ptr %54, align 8, !tbaa !200
  %56 = getelementptr inbounds nuw %struct.textlabel_t, ptr %55, i32 0, i32 10
  %57 = load i8, ptr %56, align 1, !tbaa !174, !range !48, !noundef !49
  %58 = trunc i8 %57 to i1
  br i1 %58, label %59, label %80

59:                                               ; preds = %50
  %60 = load double, ptr %5, align 8, !tbaa !12
  %61 = load ptr, ptr %4, align 8, !tbaa !123
  %62 = getelementptr inbounds nuw %struct.Agobj_s, ptr %61, i32 0, i32 1
  %63 = load ptr, ptr %62, align 8, !tbaa !21
  %64 = getelementptr inbounds nuw %struct.Agraphinfo_t, ptr %63, i32 0, i32 2
  %65 = load ptr, ptr %64, align 8, !tbaa !200
  %66 = getelementptr inbounds nuw %struct.textlabel_t, ptr %65, i32 0, i32 7
  %67 = getelementptr inbounds nuw %struct.pointf_s, ptr %66, i32 0, i32 0
  %68 = load double, ptr %67, align 8, !tbaa !176
  %69 = fmul double %68, %60
  store double %69, ptr %67, align 8, !tbaa !176
  %70 = load double, ptr %6, align 8, !tbaa !12
  %71 = load ptr, ptr %4, align 8, !tbaa !123
  %72 = getelementptr inbounds nuw %struct.Agobj_s, ptr %71, i32 0, i32 1
  %73 = load ptr, ptr %72, align 8, !tbaa !21
  %74 = getelementptr inbounds nuw %struct.Agraphinfo_t, ptr %73, i32 0, i32 2
  %75 = load ptr, ptr %74, align 8, !tbaa !200
  %76 = getelementptr inbounds nuw %struct.textlabel_t, ptr %75, i32 0, i32 7
  %77 = getelementptr inbounds nuw %struct.pointf_s, ptr %76, i32 0, i32 1
  %78 = load double, ptr %77, align 8, !tbaa !177
  %79 = fmul double %78, %70
  store double %79, ptr %77, align 8, !tbaa !177
  br label %80

80:                                               ; preds = %59, %50, %3
  store i32 1, ptr %7, align 4, !tbaa !45
  br label %81

81:                                               ; preds = %101, %80
  %82 = load i32, ptr %7, align 4, !tbaa !45
  %83 = load ptr, ptr %4, align 8, !tbaa !123
  %84 = getelementptr inbounds nuw %struct.Agobj_s, ptr %83, i32 0, i32 1
  %85 = load ptr, ptr %84, align 8, !tbaa !21
  %86 = getelementptr inbounds nuw %struct.Agraphinfo_t, ptr %85, i32 0, i32 24
  %87 = load i32, ptr %86, align 4, !tbaa !168
  %88 = icmp sle i32 %82, %87
  br i1 %88, label %89, label %104

89:                                               ; preds = %81
  %90 = load ptr, ptr %4, align 8, !tbaa !123
  %91 = getelementptr inbounds nuw %struct.Agobj_s, ptr %90, i32 0, i32 1
  %92 = load ptr, ptr %91, align 8, !tbaa !21
  %93 = getelementptr inbounds nuw %struct.Agraphinfo_t, ptr %92, i32 0, i32 25
  %94 = load ptr, ptr %93, align 8, !tbaa !169
  %95 = load i32, ptr %7, align 4, !tbaa !45
  %96 = sext i32 %95 to i64
  %97 = getelementptr inbounds ptr, ptr %94, i64 %96
  %98 = load ptr, ptr %97, align 8, !tbaa !123
  %99 = load double, ptr %5, align 8, !tbaa !12
  %100 = load double, ptr %6, align 8, !tbaa !12
  call void @scaleBB(ptr noundef %98, double noundef %99, double noundef %100)
  br label %101

101:                                              ; preds = %89
  %102 = load i32, ptr %7, align 4, !tbaa !45
  %103 = add nsw i32 %102, 1
  store i32 %103, ptr %7, align 4, !tbaa !45
  br label %81, !llvm.loop !216

104:                                              ; preds = %81
  call void @llvm.lifetime.end.p0(i64 4, ptr %7) #11
  ret void
}