; Function Attrs: nofree nosync nounwind memory(readwrite, inaccessiblemem: none) uwtable
define internal fastcc void @scaleBB(ptr noundef readonly captures(none) %0, double noundef %1, double noundef %2) unnamed_addr #9 {
  %4 = getelementptr inbounds nuw i8, ptr %0, i64 16
  %5 = load ptr, ptr %4, align 8, !tbaa !20
  %6 = getelementptr inbounds nuw i8, ptr %5, i64 48
  %7 = load double, ptr %6, align 8, !tbaa !141
  %8 = fmul double %1, %7
  store double %8, ptr %6, align 8, !tbaa !141
  %9 = getelementptr inbounds nuw i8, ptr %5, i64 56
  %10 = load double, ptr %9, align 8, !tbaa !143
  %11 = fmul double %2, %10
  store double %11, ptr %9, align 8, !tbaa !143
  %12 = getelementptr inbounds nuw i8, ptr %5, i64 32
  %13 = load double, ptr %12, align 8, !tbaa !137
  %14 = fmul double %1, %13
  store double %14, ptr %12, align 8, !tbaa !137
  %15 = getelementptr inbounds nuw i8, ptr %5, i64 40
  %16 = load double, ptr %15, align 8, !tbaa !138
  %17 = fmul double %2, %16
  store double %17, ptr %15, align 8, !tbaa !138
  %18 = getelementptr inbounds nuw i8, ptr %5, i64 24
  %19 = load ptr, ptr %18, align 8, !tbaa !183
  %.not = icmp eq ptr %19, null
  br i1 %.not, label %31, label %20

20:                                               ; preds = %3
  %21 = getelementptr inbounds nuw i8, ptr %19, i64 105
  %22 = load i8, ptr %21, align 1, !tbaa !161, !range !44, !noundef !45
  %23 = trunc nuw i8 %22 to i1
  br i1 %23, label %24, label %31

24:                                               ; preds = %20
  %25 = getelementptr inbounds nuw i8, ptr %19, i64 72
  %26 = load double, ptr %25, align 8, !tbaa !163
  %27 = fmul double %1, %26
  store double %27, ptr %25, align 8, !tbaa !163
  %28 = getelementptr inbounds nuw i8, ptr %19, i64 80
  %29 = load double, ptr %28, align 8, !tbaa !164
  %30 = fmul double %2, %29
  store double %30, ptr %28, align 8, !tbaa !164
  br label %31

31:                                               ; preds = %24, %20, %3
  %32 = getelementptr inbounds nuw i8, ptr %5, i64 236
  %33 = load i32, ptr %32, align 4, !tbaa !172
  %.not2122 = icmp slt i32 %33, 1
  br i1 %.not2122, label %._crit_edge, label %.lr.ph

.lr.ph:                                           ; preds = %31, %.lr.ph
  %indvars.iv = phi i64 [ %indvars.iv.next, %.lr.ph ], [ 1, %31 ]
  %34 = phi ptr [ %39, %.lr.ph ], [ %5, %31 ]
  %35 = getelementptr inbounds nuw i8, ptr %34, i64 240
  %36 = load ptr, ptr %35, align 8, !tbaa !173
  %37 = getelementptr inbounds nuw ptr, ptr %36, i64 %indvars.iv
  %38 = load ptr, ptr %37, align 8, !tbaa !174
  tail call fastcc void @scaleBB(ptr noundef %38, double noundef %1, double noundef %2)
  %indvars.iv.next = add nuw nsw i64 %indvars.iv, 1
  %39 = load ptr, ptr %4, align 8, !tbaa !20
  %40 = getelementptr inbounds nuw i8, ptr %39, i64 236
  %41 = load i32, ptr %40, align 4, !tbaa !172
  %42 = sext i32 %41 to i64
  %.not21.not = icmp slt i64 %indvars.iv, %42
  br i1 %.not21.not, label %.lr.ph, label %._crit_edge, !llvm.loop !185

._crit_edge:                                      ; preds = %.lr.ph, %31
  ret void
}